(lp0
(dp1
S'class_name'
p2
S'LSTM'
p3
sS'config'
p4
(dp5
S'recurrent_activation'
p6
S'hard_sigmoid'
p7
sS'dtype'
p8
S'float32'
p9
sS'trainable'
p10
I01
sS'recurrent_initializer'
p11
(dp12
g2
S'Orthogonal'
p13
sg4
(dp14
S'seed'
p15
NsS'gain'
p16
F1.0
sssS'use_bias'
p17
I01
sS'bias_regularizer'
p18
NsS'return_state'
p19
I00
sS'unroll'
p20
I00
sS'activation'
p21
S'tanh'
p22
sS'bias_initializer'
p23
(dp24
g2
S'Zeros'
p25
sg4
(dp26
ssS'units'
p27
I256
sS'batch_input_shape'
p28
(NI100
I1
tp29
sS'activity_regularizer'
p30
NsS'recurrent_dropout'
p31
F0.0
sS'kernel_initializer'
p32
(dp33
g2
S'VarianceScaling'
p34
sg4
(dp35
S'distribution'
p36
S'uniform'
p37
sS'scale'
p38
F1.0
sg15
NsS'mode'
p39
S'fan_avg'
p40
sssS'kernel_constraint'
p41
NsS'dropout'
p42
F0.0
sS'stateful'
p43
I00
sS'unit_forget_bias'
p44
I01
sS'recurrent_regularizer'
p45
NsS'name'
p46
S'lstm_1'
p47
sS'bias_constraint'
p48
NsS'go_backwards'
p49
I00
sS'implementation'
p50
I1
sS'kernel_regularizer'
p51
NsS'return_sequences'
p52
I01
sS'recurrent_constraint'
p53
Nssa(dp54
g2
S'Dropout'
p55
sg4
(dp56
S'rate'
p57
F0.2
sS'noise_shape'
p58
Nsg10
I01
sg15
Nsg46
S'dropout_1'
p59
ssa(dp60
g2
g3
sg4
(dp61
g6
g7
sg10
I01
sg11
(dp62
g2
g13
sg4
(dp63
g15
Nsg16
F1.0
sssg17
I01
sg18
Nsg19
I00
sg20
I00
sg21
g22
sg23
(dp64
g2
g25
sg4
(dp65
ssg27
I256
sg44
I01
sg30
Nsg31
F0.0
sg32
(dp66
g2
g34
sg4
(dp67
g36
S'uniform'
p68
sg38
F1.0
sg15
Nsg39
S'fan_avg'
p69
sssg41
Nsg42
F0.0
sg43
I00
sg45
Nsg46
S'lstm_2'
p70
sg48
Nsg49
I00
sg50
I1
sg51
Nsg52
I00
sg53
Nssa(dp71
g2
g55
sg4
(dp72
g57
F0.2
sg58
Nsg10
I01
sg15
Nsg46
S'dropout_2'
p73
ssa(dp74
g2
S'Dense'
p75
sg4
(dp76
g32
(dp77
g2
g34
sg4
(dp78
g36
S'uniform'
p79
sg38
F1.0
sg15
Nsg39
S'fan_avg'
p80
sssg46
S'dense_1'
p81
sg41
Nsg18
Nsg48
Nsg21
S'softmax'
p82
sg10
I01
sg51
Nsg23
(dp83
g2
g25
sg4
(dp84
ssg27
I58
sg17
I01
sg30
Nssa.